target datalayout = "e-m:e-p270:32:32-p271:32:32-p272:64:64-i64:64-i128:128-f80:128-n8:16:32:64-S128"
target triple = "x86_64-pc-linux-gnu"

%struct.RelationData = type { %struct.RelFileLocator, ptr, i32, i32, i8, i8, i8, i8, i8, i32, i32, i32, i32, ptr, ptr, i32, %struct.LockInfoData, ptr, ptr, ptr, ptr, ptr, i8, ptr, ptr, ptr, ptr, ptr, ptr, i32, ptr, i8, ptr, ptr, i32, i8, i32, ptr, i8, ptr, ptr, ptr, ptr, ptr, ptr, ptr, i32, ptr, ptr, ptr, ptr, ptr, ptr, ptr, ptr, ptr, ptr, ptr, ptr, ptr, ptr, ptr, ptr, ptr, ptr, ptr, i32, i8, ptr }
%struct.RelFileLocator = type { i32, i32, i32 }
%struct.LockInfoData = type { %struct.LockRelId }
%struct.LockRelId = type { i32, i32 }
%struct.FormData_pg_class = type { i32, %struct.nameData, i32, i32, i32, i32, i32, i32, i32, i32, float, i32, i32, i8, i8, i8, i8, i16, i16, i8, i8, i8, i8, i8, i8, i8, i8, i32, i32, i32 }
%struct.nameData = type { [64 x i8] }
%struct.PgStat_EntryRef = type { ptr, ptr, i32, ptr, %struct.dlist_node }
%struct.dlist_node = type { ptr, ptr }
%struct.PgStatShared_Relation = type { %struct.PgStatShared_Common, %struct.PgStat_StatTabEntry }
%struct.PgStatShared_Common = type { i32, %struct.LWLock }
%struct.LWLock = type { i16, %struct.pg_atomic_uint32, %struct.proclist_head }
%struct.pg_atomic_uint32 = type { i32 }
%struct.proclist_head = type { i32, i32 }
%struct.PgStat_StatTabEntry = type { i64, i64, i64, i64, i64, i64, i64, i64, i64, i64, i64, i64, i64, i64, i64, i64, i64, i64, i64, i64, i64, i64, i64, i64, i64, i64, i64 }

@MyDatabaseId = external global i32, align 4

; Function Attrs: nounwind uwtable
define dso_local ptr @pgstat_fetch_stat_tabentry_ext(i1 noundef zeroext %0, i32 noundef %1) #0 {
  %3 = alloca i8, align 1
  %4 = alloca i32, align 4
  %5 = alloca i32, align 4
  %6 = zext i1 %0 to i8
  store i8 %6, ptr %3, align 1
  store i32 %1, ptr %4, align 4
  call void @llvm.lifetime.start.p0(i64 4, ptr %5) #6
  %7 = load i8, ptr %3, align 1, !range !4, !noundef !5
  %8 = trunc i8 %7 to i1
  br i1 %8, label %9, label %10

9:                                                ; preds = %2
  br label %12

10:                                               ; preds = %2
  %11 = load i32, ptr @MyDatabaseId, align 4
  br label %12

12:                                               ; preds = %10, %9
  %13 = phi i32 [ 0, %9 ], [ %11, %10 ]
  store i32 %13, ptr %5, align 4
  %14 = load i32, ptr %5, align 4
  %15 = load i32, ptr %4, align 4
  %16 = zext i32 %15 to i64
  %17 = call ptr @pgstat_fetch_entry(i32 noundef 2, i32 noundef %14, i64 noundef %16)
  call void @llvm.lifetime.end.p0(i64 4, ptr %5) #6
  ret ptr %17
}

; Function Attrs: nounwind uwtable
define dso_local void @pgstat_copy_relation_stats(ptr noundef %0, ptr noundef %1) #0 {
  %3 = alloca ptr, align 8
  %4 = alloca ptr, align 8
  %5 = alloca ptr, align 8
  %6 = alloca ptr, align 8
  %7 = alloca ptr, align 8
  %8 = alloca i32, align 4
  store ptr %0, ptr %3, align 8
  store ptr %1, ptr %4, align 8
  call void @llvm.lifetime.start.p0(i64 8, ptr %5) #6
  call void @llvm.lifetime.start.p0(i64 8, ptr %6) #6
  call void @llvm.lifetime.start.p0(i64 8, ptr %7) #6
  %9 = load ptr, ptr %4, align 8
  %10 = getelementptr inbounds nuw %struct.RelationData, ptr %9, i32 0, i32 13
  %11 = load ptr, ptr %10, align 8
  %12 = getelementptr inbounds nuw %struct.FormData_pg_class, ptr %11, i32 0, i32 14
  %13 = load i8, ptr %12, align 1, !range !4, !noundef !5
  %14 = trunc i8 %13 to i1
  %15 = load ptr, ptr %4, align 8
  %16 = getelementptr inbounds nuw %struct.RelationData, ptr %15, i32 0, i32 15
  %17 = load i32, ptr %16, align 8
  %18 = call ptr @pgstat_fetch_stat_tabentry_ext(i1 noundef zeroext %14, i32 noundef %17)
  store ptr %18, ptr %5, align 8
  %19 = load ptr, ptr %5, align 8
  %20 = icmp ne ptr %19, null
  br i1 %20, label %22, label %21

21:                                               ; preds = %2
  store i32 1, ptr %8, align 4
  br label %46

22:                                               ; preds = %2
  %23 = load ptr, ptr %3, align 8
  %24 = getelementptr inbounds nuw %struct.RelationData, ptr %23, i32 0, i32 13
  %25 = load ptr, ptr %24, align 8
  %26 = getelementptr inbounds nuw %struct.FormData_pg_class, ptr %25, i32 0, i32 14
  %27 = load i8, ptr %26, align 1, !range !4, !noundef !5
  %28 = trunc i8 %27 to i1
  br i1 %28, label %29, label %30

29:                                               ; preds = %22
  br label %32

30:                                               ; preds = %22
  %31 = load i32, ptr @MyDatabaseId, align 4
  br label %32

32:                                               ; preds = %30, %29
  %33 = phi i32 [ 0, %29 ], [ %31, %30 ]
  %34 = load ptr, ptr %3, align 8
  %35 = getelementptr inbounds nuw %struct.RelationData, ptr %34, i32 0, i32 15
  %36 = load i32, ptr %35, align 8
  %37 = zext i32 %36 to i64
  %38 = call ptr @pgstat_get_entry_ref_locked(i32 noundef 2, i32 noundef %33, i64 noundef %37, i1 noundef zeroext false)
  store ptr %38, ptr %7, align 8
  %39 = load ptr, ptr %7, align 8
  %40 = getelementptr inbounds nuw %struct.PgStat_EntryRef, ptr %39, i32 0, i32 1
  %41 = load ptr, ptr %40, align 8
  store ptr %41, ptr %6, align 8
  %42 = load ptr, ptr %6, align 8
  %43 = getelementptr inbounds nuw %struct.PgStatShared_Relation, ptr %42, i32 0, i32 1
  %44 = load ptr, ptr %5, align 8
  call void @llvm.memcpy.p0.p0.i64(ptr align 8 %43, ptr align 8 %44, i64 216, i1 false)
  %45 = load ptr, ptr %7, align 8
  call void @pgstat_unlock_entry(ptr noundef %45)
  store i32 0, ptr %8, align 4
  br label %46

46:                                               ; preds = %32, %21
  call void @llvm.lifetime.end.p0(i64 8, ptr %7) #6
  call void @llvm.lifetime.end.p0(i64 8, ptr %6) #6
  call void @llvm.lifetime.end.p0(i64 8, ptr %5) #6
  %47 = load i32, ptr %8, align 4
  switch i32 %47, label %49 [
    i32 0, label %48
    i32 1, label %48
  ]

48:                                               ; preds = %46, %46
  ret void

49:                                               ; preds = %46
  unreachable
}