; Function Attrs: nounwind uwtable
define dso_local void @pgstat_copy_relation_stats(ptr noundef readonly captures(none) %0, ptr noundef readonly captures(none) %1) local_unnamed_addr #0 {
  %3 = getelementptr inbounds nuw i8, ptr %1, i64 56
  %4 = load ptr, ptr %3, align 8
  %5 = getelementptr inbounds nuw i8, ptr %4, i64 113
  %6 = load i8, ptr %5, align 1, !range !4, !noundef !5
  %7 = trunc nuw i8 %6 to i1
  %8 = getelementptr inbounds nuw i8, ptr %1, i64 72
  %9 = load i32, ptr %8, align 8
  %10 = load i32, ptr @MyDatabaseId, align 4
  %11 = select i1 %7, i32 0, i32 %10
  %12 = zext i32 %9 to i64
  %13 = tail call ptr @pgstat_fetch_entry(i32 noundef 2, i32 noundef %11, i64 noundef %12) #9
  %.not = icmp eq ptr %13, null
  br i1 %.not, label %29, label %14

14:                                               ; preds = %2
  %15 = getelementptr inbounds nuw i8, ptr %0, i64 56
  %16 = load ptr, ptr %15, align 8
  %17 = getelementptr inbounds nuw i8, ptr %16, i64 113
  %18 = load i8, ptr %17, align 1, !range !4, !noundef !5
  %19 = trunc nuw i8 %18 to i1
  %20 = load i32, ptr @MyDatabaseId, align 4
  %21 = select i1 %19, i32 0, i32 %20
  %22 = getelementptr inbounds nuw i8, ptr %0, i64 72
  %23 = load i32, ptr %22, align 8
  %24 = zext i32 %23 to i64
  %25 = tail call ptr @pgstat_get_entry_ref_locked(i32 noundef 2, i32 noundef %21, i64 noundef %24, i1 noundef zeroext false) #9
  %26 = getelementptr inbounds nuw i8, ptr %25, i64 8
  %27 = load ptr, ptr %26, align 8
  %28 = getelementptr inbounds nuw i8, ptr %27, i64 24
  tail call void @llvm.memcpy.p0.p0.i64(ptr noundef nonnull align 8 dereferenceable(216) %28, ptr noundef nonnull align 8 dereferenceable(216) %13, i64 216, i1 false)
  tail call void @pgstat_unlock_entry(ptr noundef %25) #9
  br label %29

29:                                               ; preds = %2, %14
  ret void
}